target datalayout = "e-m:e-p270:32:32-p271:32:32-p272:64:64-i64:64-i128:128-f80:128-n8:16:32:64-S128"
target triple = "x86_64-pc-linux-gnu"

%struct.GCRef = type { i64 }
%struct.jit_State = type { %struct.GCtrace, ptr, ptr, ptr, ptr, ptr, ptr, i32, i32, i32, i8, i8, %struct.IRType1, i8, %struct.FoldState, ptr, i32, i32, i32, i32, i32, i32, i32, [1 x i32], [5 x %union.TValue], [3 x %union.TValue], ptr, i32, i32, i32, i32, ptr, ptr, i32, i32, i8, ptr, i32, i32, i16, [101 x i16], [258 x i32], [15 x i32], [16 x ptr], [64 x %struct.HotPenalty], i32, [16 x %struct.BPropEntry], i32, %struct.ScEvEntry, ptr, i32, i32, i32, ptr, i32, i32, ptr, ptr, ptr, i64, i64, %union.TValue, ptr, i32, i32 }
%struct.GCtrace = type { %struct.GCRef, i8, i8, i16, i32, i32, %struct.GCRef, ptr, i32, i32, ptr, ptr, %struct.GCRef, %struct.MRef, i32, i32, ptr, i32, i16, i16, i16, i16, i16, i16, i16, i8, i8, i8, i8 }
%struct.MRef = type { i64 }
%struct.IRType1 = type { i8 }
%struct.FoldState = type { %union.IRIns, [2 x %union.IRIns], [2 x %union.IRIns] }
%union.IRIns = type { %struct.GCRef }
%struct.HotPenalty = type { %struct.MRef, i16, i16 }
%struct.BPropEntry = type { i16, i16, i32 }
%struct.ScEvEntry = type { %struct.MRef, i16, i16, i16, i16, %struct.IRType1, i8 }
%union.TValue = type { i64 }
%struct.anon.2 = type { i16, i16, i16, i16 }
%struct.GCfuncC = type { %struct.GCRef, i8, i8, i8, i8, %struct.GCRef, %struct.GCRef, %struct.MRef, ptr, [1 x %union.TValue] }
%struct.GCudata = type { %struct.GCRef, i8, i8, i8, i8, %struct.GCRef, i32, %struct.GCRef, i32 }

; Function Attrs: alwaysinline nounwind uwtable
define internal void @lj_ir_set_(ptr noundef %0, i16 noundef zeroext %1, i16 noundef zeroext %2, i16 noundef zeroext %3) #1 {
  %5 = alloca ptr, align 8
  %6 = alloca i16, align 2
  %7 = alloca i16, align 2
  %8 = alloca i16, align 2
  store ptr %0, ptr %5, align 8, !tbaa !4
  store i16 %1, ptr %6, align 2, !tbaa !14
  store i16 %2, ptr %7, align 2, !tbaa !14
  store i16 %3, ptr %8, align 2, !tbaa !14
  %9 = load i16, ptr %6, align 2, !tbaa !14
  %10 = load ptr, ptr %5, align 8, !tbaa !4
  %11 = getelementptr inbounds nuw %struct.jit_State, ptr %10, i32 0, i32 14
  %12 = getelementptr inbounds nuw %struct.FoldState, ptr %11, i32 0, i32 0
  %13 = getelementptr inbounds nuw %struct.anon.2, ptr %12, i32 0, i32 2
  store i16 %9, ptr %13, align 4, !tbaa !13
  %14 = load i16, ptr %7, align 2, !tbaa !14
  %15 = load ptr, ptr %5, align 8, !tbaa !4
  %16 = getelementptr inbounds nuw %struct.jit_State, ptr %15, i32 0, i32 14
  %17 = getelementptr inbounds nuw %struct.FoldState, ptr %16, i32 0, i32 0
  %18 = getelementptr inbounds nuw %struct.anon.2, ptr %17, i32 0, i32 0
  store i16 %14, ptr %18, align 8, !tbaa !13
  %19 = load i16, ptr %8, align 2, !tbaa !14
  %20 = load ptr, ptr %5, align 8, !tbaa !4
  %21 = getelementptr inbounds nuw %struct.jit_State, ptr %20, i32 0, i32 14
  %22 = getelementptr inbounds nuw %struct.FoldState, ptr %21, i32 0, i32 0
  %23 = getelementptr inbounds nuw %struct.anon.2, ptr %22, i32 0, i32 1
  store i16 %19, ptr %23, align 2, !tbaa !13
  ret void
}

; Function Attrs: nounwind uwtable
define internal void @recff_math_random(ptr noundef %0, ptr noundef %1) #0 {
  %3 = alloca ptr, align 8
  %4 = alloca ptr, align 8
  %5 = alloca ptr, align 8
  %6 = alloca i32, align 4
  %7 = alloca i32, align 4
  %8 = alloca i32, align 4
  %9 = alloca i32, align 4
  store ptr %0, ptr %3, align 8, !tbaa !4
  store ptr %1, ptr %4, align 8, !tbaa !46
  call void @llvm.lifetime.start.p0(i64 8, ptr %5) #9
  %10 = load ptr, ptr %3, align 8, !tbaa !4
  %11 = getelementptr inbounds nuw %struct.jit_State, ptr %10, i32 0, i32 4
  %12 = load ptr, ptr %11, align 8, !tbaa !16
  %13 = getelementptr inbounds nuw %struct.GCfuncC, ptr %12, i32 0, i32 9
  %14 = getelementptr inbounds [1 x %union.TValue], ptr %13, i64 0, i64 0
  %15 = getelementptr inbounds nuw %struct.GCRef, ptr %14, i32 0, i32 0
  %16 = load i64, ptr %15, align 8, !tbaa !13
  %17 = and i64 %16, 140737488355327
  %18 = inttoptr i64 %17 to ptr
  store ptr %18, ptr %5, align 8, !tbaa !64
  call void @llvm.lifetime.start.p0(i64 4, ptr %6) #9
  call void @llvm.lifetime.start.p0(i64 4, ptr %7) #9
  %19 = load ptr, ptr %3, align 8, !tbaa !4
  %20 = load ptr, ptr %5, align 8, !tbaa !64
  %21 = call i32 @lj_ir_kgc(ptr noundef %19, ptr noundef %20, i32 noundef 12)
  %22 = load ptr, ptr %3, align 8, !tbaa !4
  %23 = load ptr, ptr %3, align 8, !tbaa !4
  %24 = load ptr, ptr %5, align 8, !tbaa !64
  %25 = getelementptr inbounds %struct.GCudata, ptr %24, i64 1
  %26 = call i32 @lj_ir_kptr_(ptr noundef %23, i32 noundef 25, ptr noundef %25)
  %27 = call i32 (ptr, i32, ...) @lj_ir_call(ptr noundef %22, i32 noundef 43, i32 noundef %26)
  store i32 %27, ptr %6, align 4, !tbaa !9
  %28 = load ptr, ptr %3, align 8, !tbaa !4
  %29 = call i32 @lj_ir_knum_u64(ptr noundef %28, i64 noundef 4607182418800017408)
  store i32 %29, ptr %7, align 4, !tbaa !9
  %30 = load ptr, ptr %3, align 8, !tbaa !4
  %31 = load i32, ptr %6, align 4, !tbaa !9
  %32 = trunc i32 %31 to i16
  %33 = load i32, ptr %7, align 4, !tbaa !9
  %34 = trunc i32 %33 to i16
  call void @lj_ir_set_(ptr noundef %30, i16 noundef zeroext 10766, i16 noundef zeroext %32, i16 noundef zeroext %34)
  %35 = load ptr, ptr %3, align 8, !tbaa !4
  %36 = call i32 @lj_opt_fold(ptr noundef %35)
  store i32 %36, ptr %6, align 4, !tbaa !9
  %37 = load ptr, ptr %3, align 8, !tbaa !4
  %38 = getelementptr inbounds nuw %struct.jit_State, ptr %37, i32 0, i32 6
  %39 = load ptr, ptr %38, align 8, !tbaa !41
  %40 = getelementptr inbounds i32, ptr %39, i64 0
  %41 = load i32, ptr %40, align 4, !tbaa !9
  %42 = icmp ne i32 %41, 0
  br i1 %42, label %43, label %119

43:                                               ; preds = %2
  call void @llvm.lifetime.start.p0(i64 4, ptr %8) #9
  %44 = load ptr, ptr %3, align 8, !tbaa !4
  %45 = load ptr, ptr %3, align 8, !tbaa !4
  %46 = getelementptr inbounds nuw %struct.jit_State, ptr %45, i32 0, i32 6
  %47 = load ptr, ptr %46, align 8, !tbaa !41
  %48 = getelementptr inbounds i32, ptr %47, i64 0
  %49 = load i32, ptr %48, align 4, !tbaa !9
  %50 = call i32 @lj_ir_tonum(ptr noundef %44, i32 noundef %49)
  store i32 %50, ptr %8, align 4, !tbaa !9
  %51 = load ptr, ptr %3, align 8, !tbaa !4
  %52 = getelementptr inbounds nuw %struct.jit_State, ptr %51, i32 0, i32 6
  %53 = load ptr, ptr %52, align 8, !tbaa !41
  %54 = getelementptr inbounds i32, ptr %53, i64 1
  %55 = load i32, ptr %54, align 4, !tbaa !9
  %56 = icmp ne i32 %55, 0
  br i1 %56, label %57, label %98

57:                                               ; preds = %43
  call void @llvm.lifetime.start.p0(i64 4, ptr %9) #9
  %58 = load ptr, ptr %3, align 8, !tbaa !4
  %59 = load ptr, ptr %3, align 8, !tbaa !4
  %60 = getelementptr inbounds nuw %struct.jit_State, ptr %59, i32 0, i32 6
  %61 = load ptr, ptr %60, align 8, !tbaa !41
  %62 = getelementptr inbounds i32, ptr %61, i64 1
  %63 = load i32, ptr %62, align 4, !tbaa !9
  %64 = call i32 @lj_ir_tonum(ptr noundef %58, i32 noundef %63)
  store i32 %64, ptr %9, align 4, !tbaa !9
  %65 = load ptr, ptr %3, align 8, !tbaa !4
  %66 = load i32, ptr %9, align 4, !tbaa !9
  %67 = trunc i32 %66 to i16
  %68 = load i32, ptr %8, align 4, !tbaa !9
  %69 = trunc i32 %68 to i16
  call void @lj_ir_set_(ptr noundef %65, i16 noundef zeroext 10766, i16 noundef zeroext %67, i16 noundef zeroext %69)
  %70 = load ptr, ptr %3, align 8, !tbaa !4
  %71 = call i32 @lj_opt_fold(ptr noundef %70)
  store i32 %71, ptr %9, align 4, !tbaa !9
  %72 = load ptr, ptr %3, align 8, !tbaa !4
  %73 = load i32, ptr %9, align 4, !tbaa !9
  %74 = trunc i32 %73 to i16
  %75 = load i32, ptr %7, align 4, !tbaa !9
  %76 = trunc i32 %75 to i16
  call void @lj_ir_set_(ptr noundef %72, i16 noundef zeroext 10510, i16 noundef zeroext %74, i16 noundef zeroext %76)
  %77 = load ptr, ptr %3, align 8, !tbaa !4
  %78 = call i32 @lj_opt_fold(ptr noundef %77)
  store i32 %78, ptr %9, align 4, !tbaa !9
  %79 = load ptr, ptr %3, align 8, !tbaa !4
  %80 = load i32, ptr %6, align 4, !tbaa !9
  %81 = trunc i32 %80 to i16
  %82 = load i32, ptr %9, align 4, !tbaa !9
  %83 = trunc i32 %82 to i16
  call void @lj_ir_set_(ptr noundef %79, i16 noundef zeroext 11022, i16 noundef zeroext %81, i16 noundef zeroext %83)
  %84 = load ptr, ptr %3, align 8, !tbaa !4
  %85 = call i32 @lj_opt_fold(ptr noundef %84)
  store i32 %85, ptr %6, align 4, !tbaa !9
  %86 = load ptr, ptr %3, align 8, !tbaa !4
  %87 = load i32, ptr %6, align 4, !tbaa !9
  %88 = trunc i32 %87 to i16
  call void @lj_ir_set_(ptr noundef %86, i16 noundef zeroext 13326, i16 noundef zeroext %88, i16 noundef zeroext 0)
  %89 = load ptr, ptr %3, align 8, !tbaa !4
  %90 = call i32 @lj_opt_fold(ptr noundef %89)
  store i32 %90, ptr %6, align 4, !tbaa !9
  %91 = load ptr, ptr %3, align 8, !tbaa !4
  %92 = load i32, ptr %6, align 4, !tbaa !9
  %93 = trunc i32 %92 to i16
  %94 = load i32, ptr %8, align 4, !tbaa !9
  %95 = trunc i32 %94 to i16
  call void @lj_ir_set_(ptr noundef %91, i16 noundef zeroext 10510, i16 noundef zeroext %93, i16 noundef zeroext %95)
  %96 = load ptr, ptr %3, align 8, !tbaa !4
  %97 = call i32 @lj_opt_fold(ptr noundef %96)
  store i32 %97, ptr %6, align 4, !tbaa !9
  call void @llvm.lifetime.end.p0(i64 4, ptr %9) #9
  br label %118

98:                                               ; preds = %43
  %99 = load ptr, ptr %3, align 8, !tbaa !4
  %100 = load i32, ptr %6, align 4, !tbaa !9
  %101 = trunc i32 %100 to i16
  %102 = load i32, ptr %8, align 4, !tbaa !9
  %103 = trunc i32 %102 to i16
  call void @lj_ir_set_(ptr noundef %99, i16 noundef zeroext 11022, i16 noundef zeroext %101, i16 noundef zeroext %103)
  %104 = load ptr, ptr %3, align 8, !tbaa !4
  %105 = call i32 @lj_opt_fold(ptr noundef %104)
  store i32 %105, ptr %6, align 4, !tbaa !9
  %106 = load ptr, ptr %3, align 8, !tbaa !4
  %107 = load i32, ptr %6, align 4, !tbaa !9
  %108 = trunc i32 %107 to i16
  call void @lj_ir_set_(ptr noundef %106, i16 noundef zeroext 13326, i16 noundef zeroext %108, i16 noundef zeroext 0)
  %109 = load ptr, ptr %3, align 8, !tbaa !4
  %110 = call i32 @lj_opt_fold(ptr noundef %109)
  store i32 %110, ptr %6, align 4, !tbaa !9
  %111 = load ptr, ptr %3, align 8, !tbaa !4
  %112 = load i32, ptr %6, align 4, !tbaa !9
  %113 = trunc i32 %112 to i16
  %114 = load i32, ptr %7, align 4, !tbaa !9
  %115 = trunc i32 %114 to i16
  call void @lj_ir_set_(ptr noundef %111, i16 noundef zeroext 10510, i16 noundef zeroext %113, i16 noundef zeroext %115)
  %116 = load ptr, ptr %3, align 8, !tbaa !4
  %117 = call i32 @lj_opt_fold(ptr noundef %116)
  store i32 %117, ptr %6, align 4, !tbaa !9
  br label %118

118:                                              ; preds = %98, %57
  call void @llvm.lifetime.end.p0(i64 4, ptr %8) #9
  br label %119

119:                                              ; preds = %118, %2
  %120 = load i32, ptr %6, align 4, !tbaa !9
  %121 = load ptr, ptr %3, align 8, !tbaa !4
  %122 = getelementptr inbounds nuw %struct.jit_State, ptr %121, i32 0, i32 6
  %123 = load ptr, ptr %122, align 8, !tbaa !41
  %124 = getelementptr inbounds i32, ptr %123, i64 0
  store i32 %120, ptr %124, align 4, !tbaa !9
  call void @llvm.lifetime.end.p0(i64 4, ptr %7) #9
  call void @llvm.lifetime.end.p0(i64 4, ptr %6) #9
  call void @llvm.lifetime.end.p0(i64 8, ptr %5) #9
  ret void
}