; Function Attrs: nounwind uwtable
define internal void @recff_math_random(ptr noundef %0, ptr readnone captures(none) %1) #0 {
  %3 = getelementptr inbounds nuw i8, ptr %0, i64 144
  %4 = load ptr, ptr %3, align 8, !tbaa !7
  %5 = getelementptr inbounds nuw i8, ptr %4, i64 48
  %6 = load i64, ptr %5, align 8, !tbaa !4
  %7 = and i64 %6, 140737488355327
  %8 = inttoptr i64 %7 to ptr
  %9 = tail call i32 @lj_ir_kgc(ptr noundef %0, ptr noundef %8, i32 noundef 12) #9
  %10 = getelementptr inbounds nuw i8, ptr %8, i64 48
  %11 = tail call i32 @lj_ir_kptr_(ptr noundef %0, i32 noundef 25, ptr noundef nonnull %10) #9
  %12 = tail call i32 (ptr, i32, ...) @lj_ir_call(ptr noundef %0, i32 noundef 43, i32 noundef %11) #9
  %13 = tail call i32 @lj_ir_knum_u64(ptr noundef %0, i64 noundef 4607182418800017408) #9
  %14 = trunc i32 %12 to i16
  %15 = trunc i32 %13 to i16
  %16 = getelementptr inbounds nuw i8, ptr %0, i64 184
  %17 = getelementptr inbounds nuw i8, ptr %0, i64 188
  store i16 10766, ptr %17, align 4, !tbaa !4
  store i16 %14, ptr %16, align 8, !tbaa !4
  %18 = getelementptr inbounds nuw i8, ptr %0, i64 186
  store i16 %15, ptr %18, align 2, !tbaa !4
  %19 = tail call i32 @lj_opt_fold(ptr noundef %0) #9
  %20 = getelementptr inbounds nuw i8, ptr %0, i64 160
  %21 = load ptr, ptr %20, align 8, !tbaa !37
  %22 = load i32, ptr %21, align 4, !tbaa !39
  %.not = icmp eq i32 %22, 0
  br i1 %.not, label %42, label %23

23:                                               ; preds = %2
  %24 = tail call i32 @lj_ir_tonum(ptr noundef nonnull %0, i32 noundef %22) #9
  %25 = load ptr, ptr %20, align 8, !tbaa !37
  %26 = getelementptr inbounds nuw i8, ptr %25, i64 4
  %27 = load i32, ptr %26, align 4, !tbaa !39
  %.not50 = icmp eq i32 %27, 0
  br i1 %.not50, label %.sink.split, label %28

28:                                               ; preds = %23
  %29 = tail call i32 @lj_ir_tonum(ptr noundef nonnull %0, i32 noundef %27) #9
  %30 = trunc i32 %29 to i16
  %31 = trunc i32 %24 to i16
  store i16 10766, ptr %17, align 4, !tbaa !4
  store i16 %30, ptr %16, align 8, !tbaa !4
  store i16 %31, ptr %18, align 2, !tbaa !4
  %32 = tail call i32 @lj_opt_fold(ptr noundef nonnull %0) #9
  %33 = trunc i32 %32 to i16
  store i16 10510, ptr %17, align 4, !tbaa !4
  store i16 %33, ptr %16, align 8, !tbaa !4
  store i16 %15, ptr %18, align 2, !tbaa !4
  %34 = tail call i32 @lj_opt_fold(ptr noundef nonnull %0) #9
  br label %.sink.split

.sink.split:                                      ; preds = %23, %28
  %.sink57 = phi i32 [ %34, %28 ], [ %24, %23 ]
  %.sink = phi i16 [ %31, %28 ], [ %15, %23 ]
  %35 = trunc i32 %19 to i16
  %36 = trunc i32 %.sink57 to i16
  store i16 11022, ptr %17, align 4, !tbaa !4
  store i16 %35, ptr %16, align 8, !tbaa !4
  store i16 %36, ptr %18, align 2, !tbaa !4
  %37 = tail call i32 @lj_opt_fold(ptr noundef nonnull %0) #9
  %38 = trunc i32 %37 to i16
  store i16 13326, ptr %17, align 4, !tbaa !4
  store i16 %38, ptr %16, align 8, !tbaa !4
  store i16 0, ptr %18, align 2, !tbaa !4
  %39 = tail call i32 @lj_opt_fold(ptr noundef nonnull %0) #9
  %40 = trunc i32 %39 to i16
  store i16 10510, ptr %17, align 4, !tbaa !4
  store i16 %40, ptr %16, align 8, !tbaa !4
  store i16 %.sink, ptr %18, align 2, !tbaa !4
  %41 = tail call i32 @lj_opt_fold(ptr noundef nonnull %0) #9
  br label %42

42:                                               ; preds = %.sink.split, %2
  %.0 = phi i32 [ %19, %2 ], [ %41, %.sink.split ]
  %43 = load ptr, ptr %20, align 8, !tbaa !37
  store i32 %.0, ptr %43, align 4, !tbaa !39
  ret void
}